target datalayout = "e-m:e-p270:32:32-p271:32:32-p272:64:64-i64:64-i128:128-f80:128-n8:16:32:64-S128"
target triple = "x86_64-pc-linux-gnu"

; Function Attrs: nounwind uwtable
define internal i32 @f2(double noundef %0, ptr noundef %1, ptr noundef %2, ptr noundef %3) #0 {
  %5 = alloca double, align 8
  %6 = alloca ptr, align 8
  %7 = alloca ptr, align 8
  %8 = alloca ptr, align 8
  %9 = alloca i64, align 8
  %10 = alloca i64, align 8
  %11 = alloca i64, align 8
  %12 = alloca double, align 8
  %13 = alloca ptr, align 8
  %14 = alloca ptr, align 8
  store double %0, ptr %5, align 8, !tbaa !8
  store ptr %1, ptr %6, align 8, !tbaa !10
  store ptr %2, ptr %7, align 8, !tbaa !10
  store ptr %3, ptr %8, align 8, !tbaa !19
  call void @llvm.lifetime.start.p0(i64 8, ptr %9) #5
  call void @llvm.lifetime.start.p0(i64 8, ptr %10) #5
  call void @llvm.lifetime.start.p0(i64 8, ptr %11) #5
  call void @llvm.lifetime.start.p0(i64 8, ptr %12) #5
  call void @llvm.lifetime.start.p0(i64 8, ptr %13) #5
  call void @llvm.lifetime.start.p0(i64 8, ptr %14) #5
  %15 = load ptr, ptr %6, align 8, !tbaa !10
  %16 = call ptr @N_VGetArrayPointer(ptr noundef %15)
  store ptr %16, ptr %13, align 8, !tbaa !48
  %17 = load ptr, ptr %7, align 8, !tbaa !10
  %18 = call ptr @N_VGetArrayPointer(ptr noundef %17)
  store ptr %18, ptr %14, align 8, !tbaa !48
  store i64 0, ptr %10, align 8, !tbaa !37
  br label %19

19:                                               ; preds = %66, %4
  %20 = load i64, ptr %10, align 8, !tbaa !37
  %21 = icmp slt i64 %20, 5
  br i1 %21, label %22, label %69

22:                                               ; preds = %19
  store i64 0, ptr %9, align 8, !tbaa !37
  br label %23

23:                                               ; preds = %62, %22
  %24 = load i64, ptr %9, align 8, !tbaa !37
  %25 = icmp slt i64 %24, 5
  br i1 %25, label %26, label %65

26:                                               ; preds = %23
  %27 = load i64, ptr %9, align 8, !tbaa !37
  %28 = load i64, ptr %10, align 8, !tbaa !37
  %29 = mul nsw i64 %28, 5
  %30 = add nsw i64 %27, %29
  store i64 %30, ptr %11, align 8, !tbaa !37
  %31 = load ptr, ptr %13, align 8, !tbaa !48
  %32 = load i64, ptr %11, align 8, !tbaa !37
  %33 = getelementptr inbounds double, ptr %31, i64 %32
  %34 = load double, ptr %33, align 8, !tbaa !8
  %35 = fmul double -2.000000e+00, %34
  store double %35, ptr %12, align 8, !tbaa !8
  %36 = load i64, ptr %9, align 8, !tbaa !37
  %37 = icmp ne i64 %36, 0
  br i1 %37, label %38, label %46

38:                                               ; preds = %26
  %39 = load ptr, ptr %13, align 8, !tbaa !48
  %40 = load i64, ptr %11, align 8, !tbaa !37
  %41 = sub nsw i64 %40, 1
  %42 = getelementptr inbounds double, ptr %39, i64 %41
  %43 = load double, ptr %42, align 8, !tbaa !8
  %44 = load double, ptr %12, align 8, !tbaa !8
  %45 = call double @llvm.fmuladd.f64(double 1.000000e+00, double %43, double %44)
  store double %45, ptr %12, align 8, !tbaa !8
  br label %46

46:                                               ; preds = %38, %26
  %47 = load i64, ptr %10, align 8, !tbaa !37
  %48 = icmp ne i64 %47, 0
  br i1 %48, label %49, label %57

49:                                               ; preds = %46
  %50 = load ptr, ptr %13, align 8, !tbaa !48
  %51 = load i64, ptr %11, align 8, !tbaa !37
  %52 = sub nsw i64 %51, 5
  %53 = getelementptr inbounds double, ptr %50, i64 %52
  %54 = load double, ptr %53, align 8, !tbaa !8
  %55 = load double, ptr %12, align 8, !tbaa !8
  %56 = call double @llvm.fmuladd.f64(double 1.000000e+00, double %54, double %55)
  store double %56, ptr %12, align 8, !tbaa !8
  br label %57

57:                                               ; preds = %49, %46
  %58 = load double, ptr %12, align 8, !tbaa !8
  %59 = load ptr, ptr %14, align 8, !tbaa !48
  %60 = load i64, ptr %11, align 8, !tbaa !37
  %61 = getelementptr inbounds double, ptr %59, i64 %60
  store double %58, ptr %61, align 8, !tbaa !8
  br label %62

62:                                               ; preds = %57
  %63 = load i64, ptr %9, align 8, !tbaa !37
  %64 = add nsw i64 %63, 1
  store i64 %64, ptr %9, align 8, !tbaa !37
  br label %23

65:                                               ; preds = %23
  br label %66

66:                                               ; preds = %65
  %67 = load i64, ptr %10, align 8, !tbaa !37
  %68 = add nsw i64 %67, 1
  store i64 %68, ptr %10, align 8, !tbaa !37
  br label %19

69:                                               ; preds = %19
  call void @llvm.lifetime.end.p0(i64 8, ptr %14) #5
  call void @llvm.lifetime.end.p0(i64 8, ptr %13) #5
  call void @llvm.lifetime.end.p0(i64 8, ptr %12) #5
  call void @llvm.lifetime.end.p0(i64 8, ptr %11) #5
  call void @llvm.lifetime.end.p0(i64 8, ptr %10) #5
  call void @llvm.lifetime.end.p0(i64 8, ptr %9) #5
  ret i32 0
}